; Function Attrs: nofree norecurse nosync nounwind memory(argmem: readwrite) uwtable
define hidden void @cfl_subsample_lbd_420_4x4_c(ptr nocapture noundef readonly %0, i32 noundef %1, ptr nocapture noundef writeonly %2) #5 {
  %invariant.op.i = add i32 %1, 1
  %4 = shl i32 %1, 1
  %5 = sext i32 %4 to i64
  %6 = sext i32 %1 to i64
  br label %.preheader.us.i

.preheader.us.i:                                  ; preds = %._crit_edge.us.i, %3
  %.026.us.i = phi ptr [ %32, %._crit_edge.us.i ], [ %0, %3 ]
  %7 = phi i1 [ false, %._crit_edge.us.i ], [ true, %3 ]
  %.02224.us.i = phi ptr [ %33, %._crit_edge.us.i ], [ %2, %3 ]
  br label %8

8:                                                ; preds = %8, %.preheader.us.i
  %9 = phi i1 [ true, %.preheader.us.i ], [ false, %8 ]
  %indvars.iv.i = phi i64 [ 0, %.preheader.us.i ], [ 2, %8 ]
  %10 = add nsw i64 %indvars.iv.i, %6
  %11 = getelementptr inbounds i8, ptr %.026.us.i, i64 %indvars.iv.i
  %12 = load i8, ptr %11, align 1
  %13 = zext i8 %12 to i16
  %14 = or disjoint i64 %indvars.iv.i, 1
  %15 = getelementptr inbounds i8, ptr %.026.us.i, i64 %14
  %16 = load i8, ptr %15, align 1
  %17 = zext i8 %16 to i16
  %18 = add nuw nsw i16 %17, %13
  %19 = getelementptr inbounds i8, ptr %.026.us.i, i64 %10
  %20 = load i8, ptr %19, align 1
  %21 = zext i8 %20 to i16
  %22 = add nuw nsw i16 %18, %21
  %23 = trunc nuw nsw i64 %indvars.iv.i to i32
  %.reass.us.i = add i32 %invariant.op.i, %23
  %24 = sext i32 %.reass.us.i to i64
  %25 = getelementptr inbounds i8, ptr %.026.us.i, i64 %24
  %26 = load i8, ptr %25, align 1
  %27 = zext i8 %26 to i16
  %28 = add nuw nsw i16 %22, %27
  %29 = shl nuw nsw i16 %28, 1
  %30 = lshr exact i64 %indvars.iv.i, 1
  %31 = getelementptr inbounds i16, ptr %.02224.us.i, i64 %30
  store i16 %29, ptr %31, align 2
  br i1 %9, label %8, label %._crit_edge.us.i, !llvm.loop !19

._crit_edge.us.i:                                 ; preds = %8
  %32 = getelementptr inbounds i8, ptr %.026.us.i, i64 %5
  %33 = getelementptr inbounds i8, ptr %.02224.us.i, i64 64
  br i1 %7, label %.preheader.us.i, label %cfl_luma_subsampling_420_lbd_c.exit, !llvm.loop !20

cfl_luma_subsampling_420_lbd_c.exit:              ; preds = %._crit_edge.us.i
  ret void
}